target datalayout = "e-m:e-p270:32:32-p271:32:32-p272:64:64-i64:64-i128:128-f80:128-n8:16:32:64-S128"
target triple = "x86_64-pc-linux-gnu"

%struct.VP9RawFrameHeader = type { i8, i8, i8, i8, i8, i8, i8, i8, i8, i8, i8, i8, i8, i8, i8, i8, [3 x i8], [4 x i8], i8, i8, i8, i8, [3 x i8], i16, i16, i8, i16, i16, i8, i8, i8, i8, i8, i8, [4 x i8], [4 x i8], [2 x i8], [2 x i8], i8, i8, i8, i8, i8, i8, [7 x i8], i8, [3 x i8], i8, i8, [8 x [4 x i8]], [8 x [4 x i8]], [8 x [4 x i8]], i8, i8, i16 }

@.str.46 = private unnamed_addr constant [32 x i8] c"render_and_frame_size_different\00", align 1
@.str.47 = private unnamed_addr constant [21 x i8] c"render_width_minus_1\00", align 1
@.str.48 = private unnamed_addr constant [22 x i8] c"render_height_minus_1\00", align 1

; Function Attrs: nounwind uwtable
define internal i32 @cbs_vp9_read_render_size(ptr noundef %0, ptr noundef %1, ptr noundef %2) #0 {
  %4 = alloca i32, align 4
  %5 = alloca ptr, align 8
  %6 = alloca ptr, align 8
  %7 = alloca ptr, align 8
  %8 = alloca i32, align 4
  %9 = alloca i32, align 4
  %10 = alloca i32, align 4
  %11 = alloca i32, align 4
  %12 = alloca i32, align 4
  store ptr %0, ptr %5, align 8, !tbaa !4
  store ptr %1, ptr %6, align 8, !tbaa !62
  store ptr %2, ptr %7, align 8, !tbaa !79
  call void @llvm.lifetime.start.p0(i64 4, ptr %8) #8
  br label %13

13:                                               ; preds = %3
  call void @llvm.lifetime.start.p0(i64 4, ptr %9) #8
  br label %14

14:                                               ; preds = %13
  %15 = load ptr, ptr %5, align 8, !tbaa !4
  %16 = load ptr, ptr %6, align 8, !tbaa !62
  %17 = call i32 @ff_cbs_read_simple_unsigned(ptr noundef %15, ptr noundef %16, i32 noundef 1, ptr noundef @.str.46, ptr noundef %9)
  store i32 %17, ptr %8, align 4, !tbaa !11
  %18 = load i32, ptr %8, align 4, !tbaa !11
  %19 = icmp slt i32 %18, 0
  br i1 %19, label %20, label %22

20:                                               ; preds = %14
  %21 = load i32, ptr %8, align 4, !tbaa !11
  store i32 %21, ptr %4, align 4
  store i32 1, ptr %10, align 4
  br label %29

22:                                               ; preds = %14
  br label %23

23:                                               ; preds = %22
  br label %24

24:                                               ; preds = %23
  %25 = load i32, ptr %9, align 4, !tbaa !11
  %26 = trunc i32 %25 to i8
  %27 = load ptr, ptr %7, align 8, !tbaa !79
  %28 = getelementptr inbounds nuw %struct.VP9RawFrameHeader, ptr %27, i32 0, i32 25
  store i8 %26, ptr %28, align 2, !tbaa !128
  store i32 0, ptr %10, align 4
  br label %29

29:                                               ; preds = %24, %20
  call void @llvm.lifetime.end.p0(i64 4, ptr %9) #8
  %30 = load i32, ptr %10, align 4
  switch i32 %30, label %82 [
    i32 0, label %31
  ]

31:                                               ; preds = %29
  br label %32

32:                                               ; preds = %31
  br label %33

33:                                               ; preds = %32
  %34 = load ptr, ptr %7, align 8, !tbaa !79
  %35 = getelementptr inbounds nuw %struct.VP9RawFrameHeader, ptr %34, i32 0, i32 25
  %36 = load i8, ptr %35, align 2, !tbaa !128
  %37 = icmp ne i8 %36, 0
  br i1 %37, label %38, label %81

38:                                               ; preds = %33
  br label %39

39:                                               ; preds = %38
  call void @llvm.lifetime.start.p0(i64 4, ptr %11) #8
  br label %40

40:                                               ; preds = %39
  %41 = load ptr, ptr %5, align 8, !tbaa !4
  %42 = load ptr, ptr %6, align 8, !tbaa !62
  %43 = call i32 @ff_cbs_read_simple_unsigned(ptr noundef %41, ptr noundef %42, i32 noundef 16, ptr noundef @.str.47, ptr noundef %11)
  store i32 %43, ptr %8, align 4, !tbaa !11
  %44 = load i32, ptr %8, align 4, !tbaa !11
  %45 = icmp slt i32 %44, 0
  br i1 %45, label %46, label %48

46:                                               ; preds = %40
  %47 = load i32, ptr %8, align 4, !tbaa !11
  store i32 %47, ptr %4, align 4
  store i32 1, ptr %10, align 4
  br label %55

48:                                               ; preds = %40
  br label %49

49:                                               ; preds = %48
  br label %50

50:                                               ; preds = %49
  %51 = load i32, ptr %11, align 4, !tbaa !11
  %52 = trunc i32 %51 to i16
  %53 = load ptr, ptr %7, align 8, !tbaa !79
  %54 = getelementptr inbounds nuw %struct.VP9RawFrameHeader, ptr %53, i32 0, i32 26
  store i16 %52, ptr %54, align 2, !tbaa !129
  store i32 0, ptr %10, align 4
  br label %55

55:                                               ; preds = %50, %46
  call void @llvm.lifetime.end.p0(i64 4, ptr %11) #8
  %56 = load i32, ptr %10, align 4
  switch i32 %56, label %82 [
    i32 0, label %57
  ]

57:                                               ; preds = %55
  br label %58

58:                                               ; preds = %57
  br label %59

59:                                               ; preds = %58
  br label %60

60:                                               ; preds = %59
  call void @llvm.lifetime.start.p0(i64 4, ptr %12) #8
  br label %61

61:                                               ; preds = %60
  %62 = load ptr, ptr %5, align 8, !tbaa !4
  %63 = load ptr, ptr %6, align 8, !tbaa !62
  %64 = call i32 @ff_cbs_read_simple_unsigned(ptr noundef %62, ptr noundef %63, i32 noundef 16, ptr noundef @.str.48, ptr noundef %12)
  store i32 %64, ptr %8, align 4, !tbaa !11
  %65 = load i32, ptr %8, align 4, !tbaa !11
  %66 = icmp slt i32 %65, 0
  br i1 %66, label %67, label %69

67:                                               ; preds = %61
  %68 = load i32, ptr %8, align 4, !tbaa !11
  store i32 %68, ptr %4, align 4
  store i32 1, ptr %10, align 4
  br label %76

69:                                               ; preds = %61
  br label %70

70:                                               ; preds = %69
  br label %71

71:                                               ; preds = %70
  %72 = load i32, ptr %12, align 4, !tbaa !11
  %73 = trunc i32 %72 to i16
  %74 = load ptr, ptr %7, align 8, !tbaa !79
  %75 = getelementptr inbounds nuw %struct.VP9RawFrameHeader, ptr %74, i32 0, i32 27
  store i16 %73, ptr %75, align 2, !tbaa !130
  store i32 0, ptr %10, align 4
  br label %76

76:                                               ; preds = %71, %67
  call void @llvm.lifetime.end.p0(i64 4, ptr %12) #8
  %77 = load i32, ptr %10, align 4
  switch i32 %77, label %82 [
    i32 0, label %78
  ]

78:                                               ; preds = %76
  br label %79

79:                                               ; preds = %78
  br label %80

80:                                               ; preds = %79
  br label %81

81:                                               ; preds = %80, %33
  store i32 0, ptr %4, align 4
  store i32 1, ptr %10, align 4
  br label %82

82:                                               ; preds = %81, %76, %55, %29
  call void @llvm.lifetime.end.p0(i64 4, ptr %8) #8
  %83 = load i32, ptr %4, align 4
  ret i32 %83
}