; Function Attrs: nounwind uwtable
define internal fastcc range(i32 -2147483648, 1) i32 @cbs_vp9_read_render_size(ptr noundef %0, ptr noundef nonnull %1, ptr noundef writeonly captures(none) %2) unnamed_addr #0 {
  %4 = alloca i32, align 4
  %5 = alloca i32, align 4
  %6 = alloca i32, align 4
  call void @llvm.lifetime.start.p0(i64 4, ptr nonnull %4) #8
  %7 = call i32 @ff_cbs_read_simple_unsigned(ptr noundef %0, ptr noundef nonnull %1, i32 noundef 1, ptr noundef nonnull @.str.46, ptr noundef nonnull %4) #8
  %8 = icmp sgt i32 %7, -1
  br i1 %8, label %9, label %.critedge

9:                                                ; preds = %3
  %10 = load i32, ptr %4, align 4, !tbaa !22
  %11 = trunc i32 %10 to i8
  %12 = getelementptr inbounds nuw i8, ptr %2, i64 34
  store i8 %11, ptr %12, align 2, !tbaa !111
  call void @llvm.lifetime.end.p0(i64 4, ptr nonnull %4) #8
  %.not = icmp eq i8 %11, 0
  br i1 %.not, label %27, label %13

13:                                               ; preds = %9
  call void @llvm.lifetime.start.p0(i64 4, ptr nonnull %5) #8
  %14 = call i32 @ff_cbs_read_simple_unsigned(ptr noundef %0, ptr noundef nonnull %1, i32 noundef 16, ptr noundef nonnull @.str.47, ptr noundef nonnull %5) #8
  %15 = icmp sgt i32 %14, -1
  br i1 %15, label %17, label %16

16:                                               ; preds = %13
  call void @llvm.lifetime.end.p0(i64 4, ptr nonnull %5) #8
  br label %27

17:                                               ; preds = %13
  %18 = load i32, ptr %5, align 4, !tbaa !22
  %19 = trunc i32 %18 to i16
  %20 = getelementptr inbounds nuw i8, ptr %2, i64 36
  store i16 %19, ptr %20, align 2, !tbaa !112
  call void @llvm.lifetime.end.p0(i64 4, ptr nonnull %5) #8
  call void @llvm.lifetime.start.p0(i64 4, ptr nonnull %6) #8
  %21 = call i32 @ff_cbs_read_simple_unsigned(ptr noundef %0, ptr noundef nonnull %1, i32 noundef 16, ptr noundef nonnull @.str.48, ptr noundef nonnull %6) #8
  %22 = icmp sgt i32 %21, -1
  br i1 %22, label %.thread28, label %26

.thread28:                                        ; preds = %17
  %23 = load i32, ptr %6, align 4, !tbaa !22
  %24 = trunc i32 %23 to i16
  %25 = getelementptr inbounds nuw i8, ptr %2, i64 38
  store i16 %24, ptr %25, align 2, !tbaa !113
  call void @llvm.lifetime.end.p0(i64 4, ptr nonnull %6) #8
  br label %27

26:                                               ; preds = %17
  call void @llvm.lifetime.end.p0(i64 4, ptr nonnull %6) #8
  br label %27

.critedge:                                        ; preds = %3
  call void @llvm.lifetime.end.p0(i64 4, ptr nonnull %4) #8
  br label %27

27:                                               ; preds = %9, %.thread28, %26, %16, %.critedge
  %.122 = phi i32 [ %21, %26 ], [ %14, %16 ], [ %7, %.critedge ], [ 0, %.thread28 ], [ 0, %9 ]
  ret i32 %.122
}